target datalayout = "e-m:e-p270:32:32-p271:32:32-p272:64:64-i64:64-i128:128-f80:128-n8:16:32:64-S128"
target triple = "x86_64-pc-linux-gnu"

%"class.std::__shared_ptr" = type { ptr, %"class.std::__shared_count" }
%"class.std::__shared_count" = type { ptr }
%"class.open3d::geometry::KDTreeSearchParamRadius" = type { %"class.open3d::geometry::KDTreeSearchParam.base", double }
%"class.open3d::geometry::KDTreeSearchParam.base" = type <{ ptr, i32 }>
%class.anon = type { ptr }
%"class.open3d::geometry::KDTreeSearchParam" = type <{ ptr, i32, [4 x i8] }>

@.str = private unnamed_addr constant [119 x i8] c"generated/home/dtcxzyw/WorkSpace/Projects/compilers/llvm-opt-benchmark/bench/open3d/Open3D/examples/cpp/PointCloud.cpp\00", align 1
@_ZTVN6open3d8geometry17KDTreeSearchParamE = linkonce_odr dso_local unnamed_addr constant { [4 x ptr] } { [4 x ptr] [ptr null, ptr @_ZTIN6open3d8geometry17KDTreeSearchParamE, ptr @_ZN6open3d8geometry17KDTreeSearchParamD2Ev, ptr @_ZN6open3d8geometry17KDTreeSearchParamD0Ev] }, comdat, align 8
@"__PRETTY_FUNCTION__._ZZ4mainENK3$_0clEPN6open3d13visualization10VisualizerE" = private unnamed_addr constant [90 x i8] c"auto main(int, char **)::(anonymous class)::operator()(visualization::Visualizer *) const\00", align 1
@.str.32 = private unnamed_addr constant [6 x i8] c"Done.\00", align 1

; Function Attrs: mustprogress nounwind ssp uwtable
define linkonce_odr dso_local noundef ptr @_ZNKSt12__shared_ptrIN6open3d8geometry10PointCloudELN9__gnu_cxx12_Lock_policyE2EE3getEv(ptr noundef nonnull align 8 dereferenceable(16) %0) #1 comdat align 2 {
  %2 = alloca ptr, align 8
  store ptr %0, ptr %2, align 8, !tbaa !204
  %3 = load ptr, ptr %2, align 8
  %4 = getelementptr inbounds nuw %"class.std::__shared_ptr", ptr %3, i32 0, i32 0
  %5 = load ptr, ptr %4, align 8, !tbaa !1264
  ret ptr %5
}

; Function Attrs: mustprogress nounwind ssp uwtable
define linkonce_odr dso_local void @_ZN6open3d8geometry17KDTreeSearchParamC2ENS1_10SearchTypeE(ptr noundef nonnull align 8 dereferenceable(12) %0, i32 noundef %1) unnamed_addr #1 comdat align 2 {
  %3 = alloca ptr, align 8
  %4 = alloca i32, align 4
  store ptr %0, ptr %3, align 8, !tbaa !130
  store i32 %1, ptr %4, align 4, !tbaa !243
  %5 = load ptr, ptr %3, align 8
  store ptr getelementptr inbounds inrange(-16, 16) ({ [4 x ptr] }, ptr @_ZTVN6open3d8geometry17KDTreeSearchParamE, i32 0, i32 0, i32 2), ptr %5, align 8, !tbaa !41
  %6 = getelementptr inbounds nuw %"class.open3d::geometry::KDTreeSearchParam", ptr %5, i32 0, i32 1
  %7 = load i32, ptr %4, align 4, !tbaa !243
  store i32 %7, ptr %6, align 8, !tbaa !244
  ret void
}

; Function Attrs: mustprogress nounwind ssp uwtable
define linkonce_odr dso_local noundef ptr @_ZNKSt19__shared_ptr_accessIN6open3d8geometry10PointCloudELN9__gnu_cxx12_Lock_policyE2ELb0ELb0EE6_M_getEv(ptr noundef nonnull align 1 dereferenceable(1) %0) #1 comdat align 2 {
  %2 = alloca ptr, align 8
  store ptr %0, ptr %2, align 8, !tbaa !100
  %3 = load ptr, ptr %2, align 8
  %4 = call noundef ptr @_ZNKSt12__shared_ptrIN6open3d8geometry10PointCloudELN9__gnu_cxx12_Lock_policyE2EE3getEv(ptr noundef nonnull align 8 dereferenceable(16) %3) #7
  ret ptr %4
}

; Function Attrs: mustprogress nounwind ssp uwtable
define linkonce_odr dso_local void @_ZN6open3d8geometry17KDTreeSearchParamD2Ev(ptr noundef nonnull align 8 dereferenceable(12) %0) unnamed_addr #1 comdat align 2 {
  %2 = alloca ptr, align 8
  store ptr %0, ptr %2, align 8, !tbaa !130
  ret void
}

; Function Attrs: mustprogress ssp uwtable
define linkonce_odr dso_local void @_ZN6open3d8geometry23KDTreeSearchParamRadiusC2Ed(ptr noundef nonnull align 8 dereferenceable(24) %0, double noundef %1) unnamed_addr #3 comdat align 2 {
  %3 = alloca ptr, align 8
  %4 = alloca double, align 8
  store ptr %0, ptr %3, align 8, !tbaa !102
  store double %1, ptr %4, align 8, !tbaa !74
  %5 = load ptr, ptr %3, align 8
  call void @_ZN6open3d8geometry17KDTreeSearchParamC2ENS1_10SearchTypeE(ptr noundef nonnull align 8 dereferenceable(12) %5, i32 noundef 1)
  store ptr getelementptr inbounds inrange(-16, 16) ({ [4 x ptr] }, ptr @_ZTVN6open3d8geometry23KDTreeSearchParamRadiusE, i32 0, i32 0, i32 2), ptr %5, align 8, !tbaa !41
  %6 = getelementptr inbounds nuw %"class.open3d::geometry::KDTreeSearchParamRadius", ptr %5, i32 0, i32 1
  %7 = load double, ptr %4, align 8, !tbaa !74
  store double %7, ptr %6, align 8, !tbaa !104
  ret void
}

; Function Attrs: mustprogress nounwind ssp uwtable
define linkonce_odr dso_local noundef ptr @_ZNKSt19__shared_ptr_accessIN6open3d8geometry10PointCloudELN9__gnu_cxx12_Lock_policyE2ELb0ELb0EEptEv(ptr noundef nonnull align 1 dereferenceable(1) %0) #1 comdat align 2 {
  %2 = alloca ptr, align 8
  store ptr %0, ptr %2, align 8, !tbaa !100
  %3 = load ptr, ptr %2, align 8
  %4 = call noundef ptr @_ZNKSt19__shared_ptr_accessIN6open3d8geometry10PointCloudELN9__gnu_cxx12_Lock_policyE2ELb0ELb0EE6_M_getEv(ptr noundef nonnull align 1 dereferenceable(1) %3) #7
  ret ptr %4
}

; Function Attrs: inlinehint mustprogress ssp uwtable
define internal noundef zeroext i1 @"_ZZ4mainENK3$_0clEPN6open3d13visualization10VisualizerE"(ptr noundef nonnull align 8 dereferenceable(8) %0, ptr noundef %1) #8 align 2 personality ptr @__gxx_personality_v0 {
  %3 = alloca ptr, align 8
  %4 = alloca ptr, align 8
  %5 = alloca %"class.open3d::geometry::KDTreeSearchParamRadius", align 8
  %6 = alloca ptr, align 8
  %7 = alloca i32, align 4
  store ptr %0, ptr %3, align 8, !tbaa !124
  store ptr %1, ptr %4, align 8, !tbaa !474
  %8 = load ptr, ptr %3, align 8
  %9 = getelementptr inbounds nuw %class.anon, ptr %8, i32 0, i32 0
  %10 = load ptr, ptr %9, align 8, !tbaa !476
  %11 = call noundef ptr @_ZNKSt19__shared_ptr_accessIN6open3d8geometry10PointCloudELN9__gnu_cxx12_Lock_policyE2ELb0ELb0EEptEv(ptr noundef nonnull align 1 dereferenceable(1) %10) #7
  call void @llvm.lifetime.start.p0(i64 24, ptr %5) #7
  call void @_ZN6open3d8geometry23KDTreeSearchParamRadiusC2Ed(ptr noundef nonnull align 8 dereferenceable(24) %5, double noundef 5.000000e-02)
  invoke void @_ZN6open3d8geometry10PointCloud15EstimateNormalsERKNS0_17KDTreeSearchParamEb(ptr noundef nonnull align 8 dereferenceable(144) %11, ptr noundef nonnull align 8 dereferenceable(12) %5, i1 noundef zeroext true)
          to label %12 unwind label %13

12:                                               ; preds = %2
  call void @_ZN6open3d8geometry17KDTreeSearchParamD2Ev(ptr noundef nonnull align 8 dereferenceable(24) %5) #7
  call void @llvm.lifetime.end.p0(i64 24, ptr %5) #7
  call void @_ZN6open3d7utility6Logger8LogInfo_IJEEEvPKciS4_S4_DpOT_(ptr noundef @.str, i32 noundef 190, ptr noundef @"__PRETTY_FUNCTION__._ZZ4mainENK3$_0clEPN6open3d13visualization10VisualizerE", ptr noundef @.str.32)
  ret i1 true

13:                                               ; preds = %2
  %14 = landingpad { ptr, i32 }
          cleanup
  %15 = extractvalue { ptr, i32 } %14, 0
  store ptr %15, ptr %6, align 8
  %16 = extractvalue { ptr, i32 } %14, 1
  store i32 %16, ptr %7, align 4
  call void @_ZN6open3d8geometry17KDTreeSearchParamD2Ev(ptr noundef nonnull align 8 dereferenceable(24) %5) #7
  call void @llvm.lifetime.end.p0(i64 24, ptr %5) #7
  br label %17

17:                                               ; preds = %13
  %18 = load ptr, ptr %6, align 8
  %19 = load i32, ptr %7, align 4
  %20 = insertvalue { ptr, i32 } poison, ptr %18, 0
  %21 = insertvalue { ptr, i32 } %20, i32 %19, 1
  resume { ptr, i32 } %21
}

; Function Attrs: mustprogress nounwind ssp uwtable
define linkonce_odr dso_local noundef ptr @_ZNKSt9_Any_data9_M_accessEv(ptr noundef nonnull align 8 dereferenceable(16) %0) #1 comdat align 2 {
  %2 = alloca ptr, align 8
  store ptr %0, ptr %2, align 8, !tbaa !465
  %3 = load ptr, ptr %2, align 8
  %4 = getelementptr inbounds [16 x i8], ptr %3, i64 0, i64 0
  ret ptr %4
}

; Function Attrs: mustprogress ssp uwtable
define internal noundef zeroext i1 @"_ZSt13__invoke_implIbRZ4mainE3$_0JPN6open3d13visualization10VisualizerEEET_St14__invoke_otherOT0_DpOT1_"(ptr noundef nonnull align 8 dereferenceable(8) %0, ptr noundef nonnull align 8 dereferenceable(8) %1) #3 {
  %3 = alloca ptr, align 8
  %4 = alloca ptr, align 8
  store ptr %0, ptr %3, align 8, !tbaa !124
  store ptr %1, ptr %4, align 8, !tbaa !467
  %5 = load ptr, ptr %3, align 8, !tbaa !124
  %6 = load ptr, ptr %4, align 8, !tbaa !467
  %7 = load ptr, ptr %6, align 8, !tbaa !474
  %8 = call noundef zeroext i1 @"_ZZ4mainENK3$_0clEPN6open3d13visualization10VisualizerE"(ptr noundef nonnull align 8 dereferenceable(8) %5, ptr noundef %7)
  ret i1 %8
}

; Function Attrs: mustprogress nounwind ssp uwtable
define internal noundef nonnull align 8 dereferenceable(8) ptr @"_ZNKSt9_Any_data9_M_accessIZ4mainE3$_0EERKT_v"(ptr noundef nonnull align 8 dereferenceable(16) %0) #1 align 2 {
  %2 = alloca ptr, align 8
  store ptr %0, ptr %2, align 8, !tbaa !465
  %3 = load ptr, ptr %2, align 8
  %4 = call noundef ptr @_ZNKSt9_Any_data9_M_accessEv(ptr noundef nonnull align 8 dereferenceable(16) %3) #7
  ret ptr %4
}

; Function Attrs: mustprogress ssp uwtable
define internal noundef zeroext i1 @"_ZSt10__invoke_rIbRZ4mainE3$_0JPN6open3d13visualization10VisualizerEEENSt9enable_ifIX16is_invocable_r_vIT_T0_DpT1_EES7_E4typeEOS8_DpOS9_"(ptr noundef nonnull align 8 dereferenceable(8) %0, ptr noundef nonnull align 8 dereferenceable(8) %1) #3 {
  %3 = alloca ptr, align 8
  %4 = alloca ptr, align 8
  store ptr %0, ptr %3, align 8, !tbaa !124
  store ptr %1, ptr %4, align 8, !tbaa !467
  %5 = load ptr, ptr %3, align 8, !tbaa !124
  %6 = load ptr, ptr %4, align 8, !tbaa !467
  %7 = call noundef zeroext i1 @"_ZSt13__invoke_implIbRZ4mainE3$_0JPN6open3d13visualization10VisualizerEEET_St14__invoke_otherOT0_DpOT1_"(ptr noundef nonnull align 8 dereferenceable(8) %5, ptr noundef nonnull align 8 dereferenceable(8) %6)
  ret i1 %7
}

; Function Attrs: mustprogress nounwind ssp uwtable
define internal noundef ptr @"_ZNSt14_Function_base13_Base_managerIZ4mainE3$_0E14_M_get_pointerERKSt9_Any_data"(ptr noundef nonnull align 8 dereferenceable(16) %0) #1 align 2 {
  %2 = alloca ptr, align 8
  %3 = alloca ptr, align 8
  store ptr %0, ptr %2, align 8, !tbaa !465
  call void @llvm.lifetime.start.p0(i64 8, ptr %3) #7
  %4 = load ptr, ptr %2, align 8, !tbaa !465
  %5 = call noundef nonnull align 8 dereferenceable(8) ptr @"_ZNKSt9_Any_data9_M_accessIZ4mainE3$_0EERKT_v"(ptr noundef nonnull align 8 dereferenceable(16) %4) #7
  store ptr %5, ptr %3, align 8, !tbaa !124
  %6 = load ptr, ptr %3, align 8, !tbaa !124
  call void @llvm.lifetime.end.p0(i64 8, ptr %3) #7
  ret ptr %6
}

; Function Attrs: mustprogress ssp uwtable
define internal noundef zeroext i1 @"_ZNSt17_Function_handlerIFbPN6open3d13visualization10VisualizerEEZ4mainE3$_0E9_M_invokeERKSt9_Any_dataOS3_"(ptr noundef nonnull align 8 dereferenceable(16) %0, ptr noundef nonnull align 8 dereferenceable(8) %1) #3 align 2 {
  %3 = alloca ptr, align 8
  %4 = alloca ptr, align 8
  store ptr %0, ptr %3, align 8, !tbaa !465
  store ptr %1, ptr %4, align 8, !tbaa !467
  %5 = load ptr, ptr %3, align 8, !tbaa !465
  %6 = call noundef ptr @"_ZNSt14_Function_base13_Base_managerIZ4mainE3$_0E14_M_get_pointerERKSt9_Any_data"(ptr noundef nonnull align 8 dereferenceable(16) %5) #7
  %7 = load ptr, ptr %4, align 8, !tbaa !467
  %8 = call noundef zeroext i1 @"_ZSt10__invoke_rIbRZ4mainE3$_0JPN6open3d13visualization10VisualizerEEENSt9enable_ifIX16is_invocable_r_vIT_T0_DpT1_EES7_E4typeEOS8_DpOS9_"(ptr noundef nonnull align 8 dereferenceable(8) %6, ptr noundef nonnull align 8 dereferenceable(8) %7)
  ret i1 %8
}