; Function Attrs: mustprogress ssp uwtable
define internal noundef zeroext i1 @"_ZNSt17_Function_handlerIFbPN6open3d13visualization10VisualizerEEZ4mainE3$_0E9_M_invokeERKSt9_Any_dataOS3_"(ptr noundef nonnull readonly align 8 captures(none) dereferenceable(16) %0, ptr nonnull readnone align 8 captures(none) %1) #4 align 2 personality ptr @__gxx_personality_v0 {
  %3 = alloca %"class.open3d::geometry::KDTreeSearchParamRadius", align 8
  %.val = load ptr, ptr %0, align 8, !tbaa !206
  %.val.val = load ptr, ptr %.val, align 8, !tbaa !68
  call void @llvm.lifetime.start.p0(i64 24, ptr nonnull %3) #36
  %4 = getelementptr inbounds nuw i8, ptr %3, i64 8
  store i32 1, ptr %4, align 8, !tbaa !73
  store ptr getelementptr inbounds nuw inrange(-16, 16) (i8, ptr @_ZTVN6open3d8geometry23KDTreeSearchParamRadiusE, i64 16), ptr %3, align 8, !tbaa !27
  %5 = getelementptr inbounds nuw i8, ptr %3, i64 16
  store double 5.000000e-02, ptr %5, align 8, !tbaa !76
  call void @_ZN6open3d8geometry10PointCloud15EstimateNormalsERKNS0_17KDTreeSearchParamEb(ptr noundef nonnull align 8 dereferenceable(144) %.val.val, ptr noundef nonnull align 8 dereferenceable(12) %3, i1 noundef zeroext true)
  call void @llvm.lifetime.end.p0(i64 24, ptr nonnull %3) #36
  call void @_ZN6open3d7utility6Logger8LogInfo_IJEEEvPKciS4_S4_DpOT_(ptr noundef nonnull @.str, i32 noundef 190, ptr noundef nonnull @"__PRETTY_FUNCTION__._ZZ4mainENK3$_0clEPN6open3d13visualization10VisualizerE", ptr noundef nonnull @.str.32)
  ret i1 true
}